target datalayout = "e-m:e-p270:32:32-p271:32:32-p272:64:64-i64:64-i128:128-f80:128-n8:16:32:64-S128"
target triple = "x86_64-pc-linux-gnu"

%"struct.cv::optflow::GPCPatchDescriptor" = type { %"class.cv::Vec" }
%"class.cv::Vec" = type { %"class.cv::Matx" }
%"class.cv::Matx" = type { [18 x double] }
%"class.cv::Size_" = type { i32, i32 }
%"class.cv::Range" = type { i32, i32 }
%"class.cv::optflow::(anonymous namespace)::ParallelDCTFiller" = type { %"class.cv::ParallelLoopBody", %"class.cv::Size_", ptr, ptr }
%"class.cv::ParallelLoopBody" = type { ptr }
%"struct.std::_Vector_base" = type { %"struct.std::_Vector_base<cv::optflow::GPCPatchDescriptor, std::allocator<cv::optflow::GPCPatchDescriptor>>::_Vector_impl" }
%"struct.std::_Vector_base<cv::optflow::GPCPatchDescriptor, std::allocator<cv::optflow::GPCPatchDescriptor>>::_Vector_impl" = type { %"struct.std::_Vector_base<cv::optflow::GPCPatchDescriptor, std::allocator<cv::optflow::GPCPatchDescriptor>>::_Vector_impl_data" }
%"struct.std::_Vector_base<cv::optflow::GPCPatchDescriptor, std::allocator<cv::optflow::GPCPatchDescriptor>>::_Vector_impl_data" = type { ptr, ptr, ptr }

@.str.19 = private unnamed_addr constant [74 x i8] c"vector::_M_range_check: __n (which is %zu) >= this->size() (which is %zu)\00", align 1

; Function Attrs: mustprogress nounwind uwtable
define linkonce_odr hidden noundef i64 @_ZNKSt6vectorIN2cv7optflow18GPCPatchDescriptorESaIS2_EE4sizeEv(ptr noundef nonnull align 8 dereferenceable(24) %0) #5 comdat align 2 {
  %2 = alloca ptr, align 8
  store ptr %0, ptr %2, align 8, !tbaa !33
  %3 = load ptr, ptr %2, align 8
  %4 = getelementptr inbounds nuw %"struct.std::_Vector_base", ptr %3, i32 0, i32 0
  %5 = getelementptr inbounds nuw %"struct.std::_Vector_base<cv::optflow::GPCPatchDescriptor, std::allocator<cv::optflow::GPCPatchDescriptor>>::_Vector_impl_data", ptr %4, i32 0, i32 1
  %6 = load ptr, ptr %5, align 8, !tbaa !210
  %7 = getelementptr inbounds nuw %"struct.std::_Vector_base", ptr %3, i32 0, i32 0
  %8 = getelementptr inbounds nuw %"struct.std::_Vector_base<cv::optflow::GPCPatchDescriptor, std::allocator<cv::optflow::GPCPatchDescriptor>>::_Vector_impl_data", ptr %7, i32 0, i32 0
  %9 = load ptr, ptr %8, align 8, !tbaa !208
  %10 = ptrtoint ptr %6 to i64
  %11 = ptrtoint ptr %9 to i64
  %12 = sub i64 %10, %11
  %13 = sdiv exact i64 %12, 144
  ret i64 %13
}

; Function Attrs: mustprogress nounwind uwtable
define linkonce_odr hidden noundef nonnull align 8 dereferenceable(144) ptr @_ZNSt6vectorIN2cv7optflow18GPCPatchDescriptorESaIS2_EEixEm(ptr noundef nonnull align 8 dereferenceable(24) %0, i64 noundef %1) #5 comdat align 2 {
  %3 = alloca ptr, align 8
  %4 = alloca i64, align 8
  store ptr %0, ptr %3, align 8, !tbaa !33
  store i64 %1, ptr %4, align 8, !tbaa !46
  %5 = load ptr, ptr %3, align 8
  %6 = getelementptr inbounds nuw %"struct.std::_Vector_base", ptr %5, i32 0, i32 0
  %7 = getelementptr inbounds nuw %"struct.std::_Vector_base<cv::optflow::GPCPatchDescriptor, std::allocator<cv::optflow::GPCPatchDescriptor>>::_Vector_impl_data", ptr %6, i32 0, i32 0
  %8 = load ptr, ptr %7, align 8, !tbaa !208
  %9 = load i64, ptr %4, align 8, !tbaa !46
  %10 = getelementptr inbounds nuw %"struct.cv::optflow::GPCPatchDescriptor", ptr %8, i64 %9
  ret ptr %10
}

; Function Attrs: mustprogress uwtable
define linkonce_odr hidden void @_ZNKSt6vectorIN2cv7optflow18GPCPatchDescriptorESaIS2_EE14_M_range_checkEm(ptr noundef nonnull align 8 dereferenceable(24) %0, i64 noundef %1) #2 comdat align 2 {
  %3 = alloca ptr, align 8
  %4 = alloca i64, align 8
  store ptr %0, ptr %3, align 8, !tbaa !33
  store i64 %1, ptr %4, align 8, !tbaa !46
  %5 = load ptr, ptr %3, align 8
  %6 = load i64, ptr %4, align 8, !tbaa !46
  %7 = call noundef i64 @_ZNKSt6vectorIN2cv7optflow18GPCPatchDescriptorESaIS2_EE4sizeEv(ptr noundef nonnull align 8 dereferenceable(24) %5) #22
  %8 = icmp uge i64 %6, %7
  br i1 %8, label %9, label %12

9:                                                ; preds = %2
  %10 = load i64, ptr %4, align 8, !tbaa !46
  %11 = call noundef i64 @_ZNKSt6vectorIN2cv7optflow18GPCPatchDescriptorESaIS2_EE4sizeEv(ptr noundef nonnull align 8 dereferenceable(24) %5) #22
  call void (ptr, ...) @_ZSt24__throw_out_of_range_fmtPKcz(ptr noundef @.str.19, i64 noundef %10, i64 noundef %11) #23
  unreachable

12:                                               ; preds = %2
  ret void
}

; Function Attrs: mustprogress uwtable
define linkonce_odr hidden noundef nonnull align 8 dereferenceable(144) ptr @_ZNSt6vectorIN2cv7optflow18GPCPatchDescriptorESaIS2_EE2atEm(ptr noundef nonnull align 8 dereferenceable(24) %0, i64 noundef %1) #2 comdat align 2 {
  %3 = alloca ptr, align 8
  %4 = alloca i64, align 8
  store ptr %0, ptr %3, align 8, !tbaa !33
  store i64 %1, ptr %4, align 8, !tbaa !46
  %5 = load ptr, ptr %3, align 8
  %6 = load i64, ptr %4, align 8, !tbaa !46
  call void @_ZNKSt6vectorIN2cv7optflow18GPCPatchDescriptorESaIS2_EE14_M_range_checkEm(ptr noundef nonnull align 8 dereferenceable(24) %5, i64 noundef %6)
  %7 = load i64, ptr %4, align 8, !tbaa !46
  %8 = call noundef nonnull align 8 dereferenceable(144) ptr @_ZNSt6vectorIN2cv7optflow18GPCPatchDescriptorESaIS2_EEixEm(ptr noundef nonnull align 8 dereferenceable(24) %5, i64 noundef %7) #22
  ret ptr %8
}

; Function Attrs: mustprogress nounwind uwtable
define void @_ZN2cv7optflow10GPCDetails23getCoordinatesFromIndexEmNS_5Size_IiEERiS4_(i64 noundef %0, i64 %1, ptr noundef nonnull align 4 dereferenceable(4) %2, ptr noundef nonnull align 4 dereferenceable(4) %3) #5 align 2 {
  %5 = alloca %"class.cv::Size_", align 4
  %6 = alloca i64, align 8
  %7 = alloca ptr, align 8
  %8 = alloca ptr, align 8
  %9 = alloca i64, align 8
  store i64 %1, ptr %5, align 4
  store i64 %0, ptr %6, align 8, !tbaa !46
  store ptr %2, ptr %7, align 8, !tbaa !47
  store ptr %3, ptr %8, align 8, !tbaa !47
  call void @llvm.lifetime.start.p0(i64 8, ptr %9) #22
  %10 = getelementptr inbounds nuw %"class.cv::Size_", ptr %5, i32 0, i32 0
  %11 = load i32, ptr %10, align 4, !tbaa !39
  %12 = sub nsw i32 %11, 20
  %13 = sext i32 %12 to i64
  store i64 %13, ptr %9, align 8, !tbaa !46
  %14 = load i64, ptr %6, align 8, !tbaa !46
  %15 = load i64, ptr %9, align 8, !tbaa !46
  %16 = udiv i64 %14, %15
  %17 = trunc i64 %16 to i32
  %18 = load ptr, ptr %8, align 8, !tbaa !47
  store i32 %17, ptr %18, align 4, !tbaa !19
  %19 = load i64, ptr %6, align 8, !tbaa !46
  %20 = load ptr, ptr %8, align 8, !tbaa !47
  %21 = load i32, ptr %20, align 4, !tbaa !19
  %22 = sext i32 %21 to i64
  %23 = load i64, ptr %9, align 8, !tbaa !46
  %24 = mul i64 %22, %23
  %25 = sub i64 %19, %24
  %26 = add i64 %25, 10
  %27 = trunc i64 %26 to i32
  %28 = load ptr, ptr %7, align 8, !tbaa !47
  store i32 %27, ptr %28, align 4, !tbaa !19
  %29 = load ptr, ptr %8, align 8, !tbaa !47
  %30 = load i32, ptr %29, align 4, !tbaa !19
  %31 = add nsw i32 %30, 10
  store i32 %31, ptr %29, align 4, !tbaa !19
  call void @llvm.lifetime.end.p0(i64 8, ptr %9) #22
  ret void
}

; Function Attrs: mustprogress uwtable
define internal void @_ZNK2cv7optflow12_GLOBAL__N_117ParallelDCTFillerclERKNS_5RangeE(ptr noundef nonnull align 8 dereferenceable(32) %0, ptr noundef nonnull align 4 dereferenceable(8) %1) unnamed_addr #2 align 2 {
  %3 = alloca ptr, align 8
  %4 = alloca ptr, align 8
  %5 = alloca i32, align 4
  %6 = alloca i32, align 4
  %7 = alloca i32, align 4
  %8 = alloca %"class.cv::Size_", align 4
  store ptr %0, ptr %3, align 8, !tbaa !217
  store ptr %1, ptr %4, align 8, !tbaa !212
  %9 = load ptr, ptr %3, align 8
  call void @llvm.lifetime.start.p0(i64 4, ptr %5) #22
  %10 = load ptr, ptr %4, align 8, !tbaa !212
  %11 = getelementptr inbounds nuw %"class.cv::Range", ptr %10, i32 0, i32 0
  %12 = load i32, ptr %11, align 4, !tbaa !214
  store i32 %12, ptr %5, align 4, !tbaa !19
  br label %13

13:                                               ; preds = %34, %2
  %14 = load i32, ptr %5, align 4, !tbaa !19
  %15 = load ptr, ptr %4, align 8, !tbaa !212
  %16 = getelementptr inbounds nuw %"class.cv::Range", ptr %15, i32 0, i32 1
  %17 = load i32, ptr %16, align 4, !tbaa !216
  %18 = icmp slt i32 %14, %17
  br i1 %18, label %20, label %19

19:                                               ; preds = %13
  call void @llvm.lifetime.end.p0(i64 4, ptr %5) #22
  br label %37

20:                                               ; preds = %13
  call void @llvm.lifetime.start.p0(i64 4, ptr %6) #22
  call void @llvm.lifetime.start.p0(i64 4, ptr %7) #22
  %21 = load i32, ptr %5, align 4, !tbaa !19
  %22 = sext i32 %21 to i64
  %23 = getelementptr inbounds nuw %"class.cv::optflow::(anonymous namespace)::ParallelDCTFiller", ptr %9, i32 0, i32 1
  call void @llvm.memcpy.p0.p0.i64(ptr align 4 %8, ptr align 8 %23, i64 8, i1 false), !tbaa.struct !198
  %24 = load i64, ptr %8, align 4
  call void @_ZN2cv7optflow10GPCDetails23getCoordinatesFromIndexEmNS_5Size_IiEERiS4_(i64 noundef %22, i64 %24, ptr noundef nonnull align 4 dereferenceable(4) %6, ptr noundef nonnull align 4 dereferenceable(4) %7)
  %25 = getelementptr inbounds nuw %"class.cv::optflow::(anonymous namespace)::ParallelDCTFiller", ptr %9, i32 0, i32 3
  %26 = load ptr, ptr %25, align 8, !tbaa !224
  %27 = load i32, ptr %5, align 4, !tbaa !19
  %28 = sext i32 %27 to i64
  %29 = call noundef nonnull align 8 dereferenceable(144) ptr @_ZNSt6vectorIN2cv7optflow18GPCPatchDescriptorESaIS2_EE2atEm(ptr noundef nonnull align 8 dereferenceable(24) %26, i64 noundef %28)
  %30 = getelementptr inbounds nuw %"class.cv::optflow::(anonymous namespace)::ParallelDCTFiller", ptr %9, i32 0, i32 2
  %31 = load ptr, ptr %30, align 8, !tbaa !221
  %32 = load i32, ptr %7, align 4, !tbaa !19
  %33 = load i32, ptr %6, align 4, !tbaa !19
  call void @_ZN2cv7optflow12_GLOBAL__N_121getDCTPatchDescriptorERNS0_18GPCPatchDescriptorEPKNS_3MatEii(ptr noundef nonnull align 8 dereferenceable(144) %29, ptr noundef %31, i32 noundef %32, i32 noundef %33)
  call void @llvm.lifetime.end.p0(i64 4, ptr %7) #22
  call void @llvm.lifetime.end.p0(i64 4, ptr %6) #22
  br label %34

34:                                               ; preds = %20
  %35 = load i32, ptr %5, align 4, !tbaa !19
  %36 = add nsw i32 %35, 1
  store i32 %36, ptr %5, align 4, !tbaa !19
  br label %13, !llvm.loop !238

37:                                               ; preds = %19
  ret void
}