; Function Attrs: mustprogress uwtable
define internal void @_ZNK2cv7optflow12_GLOBAL__N_117ParallelDCTFillerclERKNS_5RangeE(ptr noundef nonnull readonly align 8 captures(none) dereferenceable(32) %0, ptr noundef nonnull readonly align 4 captures(none) dereferenceable(8) %1) unnamed_addr #2 align 2 {
  %3 = load i32, ptr %1, align 4, !tbaa !30
  %4 = getelementptr inbounds nuw i8, ptr %1, i64 4
  %5 = load i32, ptr %4, align 4, !tbaa !32
  %6 = icmp slt i32 %3, %5
  br i1 %6, label %.lr.ph, label %._crit_edge

.lr.ph:                                           ; preds = %2
  %7 = getelementptr inbounds nuw i8, ptr %0, i64 24
  %8 = getelementptr inbounds nuw i8, ptr %0, i64 8
  %9 = getelementptr inbounds nuw i8, ptr %0, i64 16
  %10 = sext i32 %3 to i64
  br label %11

._crit_edge:                                      ; preds = %_ZNSt6vectorIN2cv7optflow18GPCPatchDescriptorESaIS2_EE2atEm.exit, %2
  ret void

11:                                               ; preds = %.lr.ph, %_ZNSt6vectorIN2cv7optflow18GPCPatchDescriptorESaIS2_EE2atEm.exit
  %indvars.iv = phi i64 [ %10, %.lr.ph ], [ %indvars.iv.next, %_ZNSt6vectorIN2cv7optflow18GPCPatchDescriptorESaIS2_EE2atEm.exit ]
  %12 = load ptr, ptr %7, align 8, !tbaa !41
  %13 = getelementptr inbounds nuw i8, ptr %12, i64 8
  %14 = load ptr, ptr %13, align 8, !tbaa !29
  %15 = load ptr, ptr %12, align 8, !tbaa !28
  %16 = ptrtoint ptr %14 to i64
  %17 = ptrtoint ptr %15 to i64
  %18 = sub i64 %16, %17
  %19 = sdiv exact i64 %18, 144
  %.not.i.i = icmp ugt i64 %19, %indvars.iv
  br i1 %.not.i.i, label %_ZNSt6vectorIN2cv7optflow18GPCPatchDescriptorESaIS2_EE2atEm.exit, label %20

20:                                               ; preds = %11
  tail call void (ptr, ...) @_ZSt24__throw_out_of_range_fmtPKcz(ptr noundef nonnull @.str.19, i64 noundef %indvars.iv, i64 noundef %19) #28
  unreachable

_ZNSt6vectorIN2cv7optflow18GPCPatchDescriptorESaIS2_EE2atEm.exit: ; preds = %11
  %.sroa.0.0.copyload = load i64, ptr %8, align 8
  %21 = shl i64 %.sroa.0.0.copyload, 32
  %sext.i = add i64 %21, -85899345920
  %22 = ashr exact i64 %sext.i, 32
  %23 = udiv i64 %indvars.iv, %22
  %24 = trunc i64 %23 to i32
  %25 = add nsw i32 %24, 10
  %26 = mul i64 %22, %23
  %27 = trunc i64 %26 to i32
  %28 = trunc nsw i64 %indvars.iv to i32
  %29 = add i32 %28, 10
  %30 = sub i32 %29, %27
  %31 = getelementptr inbounds nuw %"struct.cv::optflow::GPCPatchDescriptor", ptr %15, i64 %indvars.iv
  %32 = load ptr, ptr %9, align 8, !tbaa !35
  tail call void @_ZN2cv7optflow12_GLOBAL__N_121getDCTPatchDescriptorERNS0_18GPCPatchDescriptorEPKNS_3MatEii(ptr noundef nonnull align 8 dereferenceable(144) %31, ptr noundef %32, i32 noundef %25, i32 noundef %30)
  %indvars.iv.next = add nuw nsw i64 %indvars.iv, 1
  %33 = load i32, ptr %4, align 4, !tbaa !32
  %34 = sext i32 %33 to i64
  %35 = icmp slt i64 %indvars.iv.next, %34
  br i1 %35, label %11, label %._crit_edge, !llvm.loop !226
}